target datalayout = "e-m:e-p270:32:32-p271:32:32-p272:64:64-i64:64-i128:128-f80:128-n8:16:32:64-S128"
target triple = "x86_64-pc-linux-gnu"

@mainApp = external global ptr, align 8

; Function Attrs: mustprogress null_pointer_is_valid sspstrong uwtable
define void @_ZN21EnabledProtocolsModel11saveChangesEb(i1 noundef zeroext %0) #0 align 2 {
  %2 = alloca i8, align 1
  %3 = zext i1 %0 to i8
  store i8 %3, ptr %2, align 1
  %4 = load i8, ptr %2, align 1, !range !6, !noundef !7
  %5 = trunc i8 %4 to i1
  br i1 %5, label %6, label %7

6:                                                ; preds = %1
  call void @save_enabled_and_disabled_lists()
  br label %7

7:                                                ; preds = %6, %1
  %8 = load ptr, ptr @mainApp, align 8
  call void @_ZN15MainApplication13emitAppSignalENS_9AppSignalE(ptr noundef align 8 dereferenceable_or_null(216) %8, i32 noundef 8)
  ret void
}