; Function Attrs: mustprogress null_pointer_is_valid sspstrong uwtable
define void @_ZN21EnabledProtocolsModel11saveChangesEb(i1 noundef zeroext %0) local_unnamed_addr #4 align 2 {
  br i1 %0, label %2, label %3

2:                                                ; preds = %1
  tail call void @save_enabled_and_disabled_lists()
  br label %3

3:                                                ; preds = %2, %1
  %4 = load ptr, ptr @mainApp, align 8
  tail call void @_ZN15MainApplication13emitAppSignalENS_9AppSignalE(ptr noundef align 8 dereferenceable_or_null(216) %4, i32 noundef 8)
  ret void
}